target datalayout = "e-m:e-p270:32:32-p271:32:32-p272:64:64-i64:64-i128:128-f80:128-n8:16:32:64-S128"
target triple = "x86_64-pc-linux-gnu"

%struct._packet_info = type { ptr, ptr, i32, i32, %struct.nstime_t, %struct.nstime_t, %struct.nstime_t, i8, ptr, ptr, ptr, ptr, %struct._address, %struct._address, %struct._address, %struct._address, %struct._address, %struct._address, i32, ptr, i8, [3 x i8], %struct.anon, i32, i32, i32, i32, ptr, i8, ptr, ptr, i16, i16, i32, i32, i16, i32, i32, ptr, ptr, ptr, i8, i8, i16, i16, i16, i32, i16, i16, ptr, ptr, ptr, ptr, ptr, i32, i32 }
%struct.nstime_t = type { i64, i32 }
%struct._address = type { i32, i32, ptr, ptr }
%struct.anon = type { i8, [3 x i8] }

@.str.332 = private unnamed_addr constant [18 x i8] c"SLIP-decoded Data\00", align 1

; Function Attrs: inlinehint nounwind null_pointer_is_valid sspstrong uwtable
define internal void @slip_decode(ptr noundef %0, ptr noundef %1, i32 noundef %2) #4 {
  %4 = alloca ptr, align 8
  %5 = alloca ptr, align 8
  %6 = alloca i32, align 4
  %7 = alloca ptr, align 8
  %8 = alloca ptr, align 8
  %9 = alloca ptr, align 8
  %10 = alloca i32, align 4
  store ptr %0, ptr %4, align 8
  store ptr %1, ptr %5, align 8
  store i32 %2, ptr %6, align 4
  call void @llvm.lifetime.start.p0(i64 8, ptr %7) #9
  call void @llvm.lifetime.start.p0(i64 8, ptr %8) #9
  %11 = load ptr, ptr %4, align 8
  store ptr %11, ptr %8, align 8
  call void @llvm.lifetime.start.p0(i64 8, ptr %9) #9
  %12 = load ptr, ptr %5, align 8
  %13 = load i32, ptr %6, align 4
  %14 = zext i32 %13 to i64
  %15 = getelementptr i8, ptr %12, i64 %14
  store ptr %15, ptr %9, align 8
  %16 = load ptr, ptr %5, align 8
  store ptr %16, ptr %7, align 8
  br label %17

17:                                               ; preds = %38, %3
  %18 = load ptr, ptr %7, align 8
  %19 = load ptr, ptr %9, align 8
  %20 = icmp ult ptr %18, %19
  br i1 %20, label %21, label %41

21:                                               ; preds = %17
  %22 = load ptr, ptr %7, align 8
  %23 = load i8, ptr %22, align 1
  %24 = zext i8 %23 to i32
  switch i32 %24, label %32 [
    i32 192, label %25
    i32 219, label %37
    i32 220, label %26
    i32 221, label %29
  ]

25:                                               ; preds = %21
  store i32 1, ptr %10, align 4
  br label %42

26:                                               ; preds = %21
  %27 = load ptr, ptr %8, align 8
  %28 = getelementptr i8, ptr %27, i32 1
  store ptr %28, ptr %8, align 8
  store i8 -64, ptr %27, align 1
  br label %37

29:                                               ; preds = %21
  %30 = load ptr, ptr %8, align 8
  %31 = getelementptr i8, ptr %30, i32 1
  store ptr %31, ptr %8, align 8
  store i8 -37, ptr %30, align 1
  br label %37

32:                                               ; preds = %21
  %33 = load ptr, ptr %7, align 8
  %34 = load i8, ptr %33, align 1
  %35 = load ptr, ptr %8, align 8
  %36 = getelementptr i8, ptr %35, i32 1
  store ptr %36, ptr %8, align 8
  store i8 %34, ptr %35, align 1
  br label %37

37:                                               ; preds = %32, %29, %26, %21
  br label %38

38:                                               ; preds = %37
  %39 = load ptr, ptr %7, align 8
  %40 = getelementptr i8, ptr %39, i32 1
  store ptr %40, ptr %7, align 8
  br label %17, !llvm.loop !11

41:                                               ; preds = %17
  store i32 0, ptr %10, align 4
  br label %42

42:                                               ; preds = %41, %25
  call void @llvm.lifetime.end.p0(i64 8, ptr %9) #9
  call void @llvm.lifetime.end.p0(i64 8, ptr %8) #9
  call void @llvm.lifetime.end.p0(i64 8, ptr %7) #9
  %43 = load i32, ptr %10, align 4
  switch i32 %43, label %45 [
    i32 0, label %44
    i32 1, label %44
  ]

44:                                               ; preds = %42, %42
  ret void

45:                                               ; preds = %42
  unreachable
}

; Function Attrs: inlinehint nounwind null_pointer_is_valid sspstrong uwtable
define internal i32 @slip_decoded_len(ptr noundef %0, i32 noundef %1) #4 {
  %3 = alloca i32, align 4
  %4 = alloca ptr, align 8
  %5 = alloca i32, align 4
  %6 = alloca ptr, align 8
  %7 = alloca ptr, align 8
  %8 = alloca i32, align 4
  %9 = alloca i8, align 1
  %10 = alloca i32, align 4
  store ptr %0, ptr %4, align 8
  store i32 %1, ptr %5, align 4
  call void @llvm.lifetime.start.p0(i64 8, ptr %6) #9
  call void @llvm.lifetime.start.p0(i64 8, ptr %7) #9
  %11 = load ptr, ptr %4, align 8
  %12 = load i32, ptr %5, align 4
  %13 = zext i32 %12 to i64
  %14 = getelementptr i8, ptr %11, i64 %13
  store ptr %14, ptr %7, align 8
  call void @llvm.lifetime.start.p0(i64 4, ptr %8) #9
  store i32 0, ptr %8, align 4
  call void @llvm.lifetime.start.p0(i64 1, ptr %9) #9
  store i8 0, ptr %9, align 1
  %15 = load ptr, ptr %4, align 8
  store ptr %15, ptr %6, align 8
  br label %16

16:                                               ; preds = %44, %2
  %17 = load ptr, ptr %6, align 8
  %18 = load ptr, ptr %7, align 8
  %19 = icmp ult ptr %17, %18
  br i1 %19, label %20, label %47

20:                                               ; preds = %16
  %21 = load i8, ptr %9, align 1, !range !6, !noundef !7
  %22 = trunc i8 %21 to i1
  br i1 %22, label %23, label %32

23:                                               ; preds = %20
  %24 = load ptr, ptr %6, align 8
  %25 = load i8, ptr %24, align 1
  %26 = zext i8 %25 to i32
  switch i32 %26, label %30 [
    i32 220, label %27
    i32 221, label %27
  ]

27:                                               ; preds = %23, %23
  store i8 0, ptr %9, align 1
  %28 = load i32, ptr %8, align 4
  %29 = add i32 %28, 1
  store i32 %29, ptr %8, align 4
  br label %31

30:                                               ; preds = %23
  store i32 -1, ptr %3, align 4
  store i32 1, ptr %10, align 4
  br label %48

31:                                               ; preds = %27
  br label %43

32:                                               ; preds = %20
  %33 = load ptr, ptr %6, align 8
  %34 = load i8, ptr %33, align 1
  %35 = zext i8 %34 to i32
  switch i32 %35, label %39 [
    i32 192, label %36
    i32 219, label %38
  ]

36:                                               ; preds = %32
  %37 = load i32, ptr %8, align 4
  store i32 %37, ptr %3, align 4
  store i32 1, ptr %10, align 4
  br label %48

38:                                               ; preds = %32
  store i8 1, ptr %9, align 1
  br label %42

39:                                               ; preds = %32
  %40 = load i32, ptr %8, align 4
  %41 = add i32 %40, 1
  store i32 %41, ptr %8, align 4
  br label %42

42:                                               ; preds = %39, %38
  br label %43

43:                                               ; preds = %42, %31
  br label %44

44:                                               ; preds = %43
  %45 = load ptr, ptr %6, align 8
  %46 = getelementptr i8, ptr %45, i32 1
  store ptr %46, ptr %6, align 8
  br label %16, !llvm.loop !10

47:                                               ; preds = %16
  store i32 -1, ptr %3, align 4
  store i32 1, ptr %10, align 4
  br label %48

48:                                               ; preds = %47, %36, %30
  call void @llvm.lifetime.end.p0(i64 1, ptr %9) #9
  call void @llvm.lifetime.end.p0(i64 4, ptr %8) #9
  call void @llvm.lifetime.end.p0(i64 8, ptr %7) #9
  call void @llvm.lifetime.end.p0(i64 8, ptr %6) #9
  %49 = load i32, ptr %3, align 4
  ret i32 %49
}

; Function Attrs: null_pointer_is_valid sspstrong uwtable
define internal i32 @dissect_osc_tcp_1_0(ptr noundef %0, ptr noundef %1, ptr noundef %2, ptr noundef %3) #0 {
  %5 = alloca ptr, align 8
  %6 = alloca ptr, align 8
  %7 = alloca ptr, align 8
  %8 = alloca ptr, align 8
  store ptr %0, ptr %5, align 8
  store ptr %1, ptr %6, align 8
  store ptr %2, ptr %7, align 8
  store ptr %3, ptr %8, align 8
  %9 = load ptr, ptr %5, align 8
  %10 = load ptr, ptr %6, align 8
  %11 = load ptr, ptr %7, align 8
  %12 = load ptr, ptr %8, align 8
  call void @tcp_dissect_pdus(ptr noundef %9, ptr noundef %10, ptr noundef %11, i1 noundef zeroext true, i32 noundef 4, ptr noundef @get_osc_pdu_len, ptr noundef @dissect_osc_tcp_pdu, ptr noundef %12)
  %13 = load ptr, ptr %5, align 8
  %14 = call i32 @tvb_reported_length(ptr noundef %13)
  ret i32 %14
}

; Function Attrs: null_pointer_is_valid sspstrong uwtable
define internal i32 @dissect_osc_tcp_1_1(ptr noundef %0, ptr noundef %1, ptr noundef %2, ptr noundef %3) #0 {
  %5 = alloca i32, align 4
  %6 = alloca ptr, align 8
  %7 = alloca ptr, align 8
  %8 = alloca ptr, align 8
  %9 = alloca ptr, align 8
  %10 = alloca i32, align 4
  %11 = alloca i32, align 4
  %12 = alloca ptr, align 8
  %13 = alloca ptr, align 8
  %14 = alloca i32, align 4
  %15 = alloca i32, align 4
  %16 = alloca ptr, align 8
  %17 = alloca ptr, align 8
  %18 = alloca i32, align 4
  store ptr %0, ptr %6, align 8
  store ptr %1, ptr %7, align 8
  store ptr %2, ptr %8, align 8
  store ptr %3, ptr %9, align 8
  call void @llvm.lifetime.start.p0(i64 4, ptr %10) #9
  store i32 0, ptr %10, align 4
  br label %19

19:                                               ; preds = %92, %4
  %20 = load i32, ptr %10, align 4
  %21 = load ptr, ptr %6, align 8
  %22 = call i32 @tvb_reported_length(ptr noundef %21)
  %23 = icmp ult i32 %20, %22
  br i1 %23, label %24, label %93

24:                                               ; preds = %19
  call void @llvm.lifetime.start.p0(i64 4, ptr %11) #9
  %25 = load ptr, ptr %6, align 8
  %26 = load i32, ptr %10, align 4
  %27 = call i32 @tvb_reported_length_remaining(ptr noundef %25, i32 noundef %26)
  store i32 %27, ptr %11, align 4
  call void @llvm.lifetime.start.p0(i64 8, ptr %12) #9
  %28 = load ptr, ptr %6, align 8
  %29 = load i32, ptr %10, align 4
  %30 = call ptr @tvb_get_ptr(ptr noundef %28, i32 noundef %29, i32 noundef -1)
  store ptr %30, ptr %12, align 8
  call void @llvm.lifetime.start.p0(i64 8, ptr %13) #9
  %31 = load ptr, ptr %12, align 8
  %32 = load i32, ptr %11, align 4
  %33 = sext i32 %32 to i64
  %34 = call ptr @memchr(ptr noundef %31, i32 noundef 192, i64 noundef %33) #12
  store ptr %34, ptr %13, align 8
  call void @llvm.lifetime.start.p0(i64 4, ptr %14) #9
  call void @llvm.lifetime.start.p0(i64 4, ptr %15) #9
  call void @llvm.lifetime.start.p0(i64 8, ptr %16) #9
  call void @llvm.lifetime.start.p0(i64 8, ptr %17) #9
  %35 = load ptr, ptr %13, align 8
  %36 = icmp ne ptr %35, null
  br i1 %36, label %46, label %37

37:                                               ; preds = %24
  %38 = load i32, ptr %10, align 4
  %39 = load ptr, ptr %7, align 8
  %40 = getelementptr inbounds nuw %struct._packet_info, ptr %39, i32 0, i32 33
  store i32 %38, ptr %40, align 4
  %41 = load ptr, ptr %7, align 8
  %42 = getelementptr inbounds nuw %struct._packet_info, ptr %41, i32 0, i32 34
  store i32 268435455, ptr %42, align 8
  %43 = load i32, ptr %10, align 4
  %44 = load i32, ptr %11, align 4
  %45 = add i32 %43, %44
  store i32 %45, ptr %5, align 4
  store i32 1, ptr %18, align 4
  br label %90

46:                                               ; preds = %24
  %47 = load ptr, ptr %13, align 8
  %48 = getelementptr i8, ptr %47, i64 1
  %49 = load ptr, ptr %12, align 8
  %50 = ptrtoint ptr %48 to i64
  %51 = ptrtoint ptr %49 to i64
  %52 = sub i64 %50, %51
  %53 = trunc i64 %52 to i32
  store i32 %53, ptr %14, align 4
  %54 = load i32, ptr %14, align 4
  %55 = icmp ugt i32 %54, 1
  br i1 %55, label %56, label %86

56:                                               ; preds = %46
  %57 = load ptr, ptr %12, align 8
  %58 = load i32, ptr %14, align 4
  %59 = call i32 @slip_decoded_len(ptr noundef %57, i32 noundef %58)
  store i32 %59, ptr %15, align 4
  %60 = load i32, ptr %15, align 4
  %61 = icmp ne i32 %60, -1
  br i1 %61, label %62, label %84

62:                                               ; preds = %56
  %63 = load ptr, ptr %7, align 8
  %64 = getelementptr inbounds nuw %struct._packet_info, ptr %63, i32 0, i32 51
  %65 = load ptr, ptr %64, align 8
  %66 = load i32, ptr %15, align 4
  %67 = sext i32 %66 to i64
  %68 = call noalias ptr @wmem_alloc(ptr noundef %65, i64 noundef %67) #13
  store ptr %68, ptr %16, align 8
  %69 = load ptr, ptr %16, align 8
  %70 = load ptr, ptr %12, align 8
  %71 = load i32, ptr %14, align 4
  call void @slip_decode(ptr noundef %69, ptr noundef %70, i32 noundef %71)
  %72 = load ptr, ptr %6, align 8
  %73 = load ptr, ptr %16, align 8
  %74 = load i32, ptr %15, align 4
  %75 = load i32, ptr %15, align 4
  %76 = call ptr @tvb_new_child_real_data(ptr noundef %72, ptr noundef %73, i32 noundef %74, i32 noundef %75)
  store ptr %76, ptr %17, align 8
  %77 = load ptr, ptr %7, align 8
  %78 = load ptr, ptr %17, align 8
  call void @add_new_data_source(ptr noundef %77, ptr noundef %78, ptr noundef @.str.332)
  %79 = load ptr, ptr %17, align 8
  %80 = load ptr, ptr %7, align 8
  %81 = load ptr, ptr %8, align 8
  %82 = load ptr, ptr %9, align 8
  %83 = load i32, ptr %15, align 4
  call void @dissect_osc_pdu_common(ptr noundef %79, ptr noundef %80, ptr noundef %81, ptr noundef %82, i32 noundef 0, i32 noundef %83)
  br label %85

84:                                               ; preds = %56
  store i32 0, ptr %5, align 4
  store i32 1, ptr %18, align 4
  br label %90

85:                                               ; preds = %62
  br label %86

86:                                               ; preds = %85, %46
  %87 = load i32, ptr %14, align 4
  %88 = load i32, ptr %10, align 4
  %89 = add i32 %88, %87
  store i32 %89, ptr %10, align 4
  store i32 0, ptr %18, align 4
  br label %90

90:                                               ; preds = %86, %84, %37
  call void @llvm.lifetime.end.p0(i64 8, ptr %17) #9
  call void @llvm.lifetime.end.p0(i64 8, ptr %16) #9
  call void @llvm.lifetime.end.p0(i64 4, ptr %15) #9
  call void @llvm.lifetime.end.p0(i64 4, ptr %14) #9
  call void @llvm.lifetime.end.p0(i64 8, ptr %13) #9
  call void @llvm.lifetime.end.p0(i64 8, ptr %12) #9
  call void @llvm.lifetime.end.p0(i64 4, ptr %11) #9
  %91 = load i32, ptr %18, align 4
  switch i32 %91, label %96 [
    i32 0, label %92
  ]

92:                                               ; preds = %90
  br label %19, !llvm.loop !8

93:                                               ; preds = %19
  %94 = load ptr, ptr %6, align 8
  %95 = call i32 @tvb_captured_length(ptr noundef %94)
  store i32 %95, ptr %5, align 4
  store i32 1, ptr %18, align 4
  br label %96

96:                                               ; preds = %93, %90
  call void @llvm.lifetime.end.p0(i64 4, ptr %10) #9
  %97 = load i32, ptr %5, align 4
  ret i32 %97
}

; Function Attrs: null_pointer_is_valid sspstrong uwtable
define internal i32 @dissect_osc_tcp(ptr noundef %0, ptr noundef %1, ptr noundef %2, ptr noundef %3) #0 {
  %5 = alloca i32, align 4
  %6 = alloca ptr, align 8
  %7 = alloca ptr, align 8
  %8 = alloca ptr, align 8
  %9 = alloca ptr, align 8
  %10 = alloca i8, align 1
  %11 = alloca i8, align 1
  %12 = alloca i32, align 4
  store ptr %0, ptr %6, align 8
  store ptr %1, ptr %7, align 8
  store ptr %2, ptr %8, align 8
  store ptr %3, ptr %9, align 8
  call void @llvm.lifetime.start.p0(i64 1, ptr %10) #9
  %13 = load ptr, ptr %6, align 8
  %14 = call zeroext i8 @tvb_get_uint8(ptr noundef %13, i32 noundef 0)
  store i8 %14, ptr %10, align 1
  call void @llvm.lifetime.start.p0(i64 1, ptr %11) #9
  %15 = load i8, ptr %10, align 1
  %16 = zext i8 %15 to i32
  %17 = icmp eq i32 %16, 192
  br i1 %17, label %26, label %18

18:                                               ; preds = %4
  %19 = load i8, ptr %10, align 1
  %20 = zext i8 %19 to i32
  %21 = icmp eq i32 %20, 47
  br i1 %21, label %26, label %22

22:                                               ; preds = %18
  %23 = load i8, ptr %10, align 1
  %24 = zext i8 %23 to i32
  %25 = icmp eq i32 %24, 35
  br label %26

26:                                               ; preds = %22, %18, %4
  %27 = phi i1 [ true, %18 ], [ true, %4 ], [ %25, %22 ]
  %28 = zext i1 %27 to i8
  store i8 %28, ptr %11, align 1
  %29 = load i8, ptr %11, align 1, !range !6, !noundef !7
  %30 = trunc i8 %29 to i1
  br i1 %30, label %31, label %37

31:                                               ; preds = %26
  %32 = load ptr, ptr %6, align 8
  %33 = load ptr, ptr %7, align 8
  %34 = load ptr, ptr %8, align 8
  %35 = load ptr, ptr %9, align 8
  %36 = call i32 @dissect_osc_tcp_1_1(ptr noundef %32, ptr noundef %33, ptr noundef %34, ptr noundef %35)
  store i32 %36, ptr %5, align 4
  store i32 1, ptr %12, align 4
  br label %43

37:                                               ; preds = %26
  %38 = load ptr, ptr %6, align 8
  %39 = load ptr, ptr %7, align 8
  %40 = load ptr, ptr %8, align 8
  %41 = load ptr, ptr %9, align 8
  %42 = call i32 @dissect_osc_tcp_1_0(ptr noundef %38, ptr noundef %39, ptr noundef %40, ptr noundef %41)
  store i32 %42, ptr %5, align 4
  store i32 1, ptr %12, align 4
  br label %43

43:                                               ; preds = %37, %31
  call void @llvm.lifetime.end.p0(i64 1, ptr %11) #9
  call void @llvm.lifetime.end.p0(i64 1, ptr %10) #9
  %44 = load i32, ptr %5, align 4
  ret i32 %44
}